; Function Attrs: mustprogress uwtable
define dso_local void @_ZN20cmFindPackageCommand17AddFindDefinitionERKNSt7__cxx1112basic_stringIcSt11char_traitsIcESaIcEEESt17basic_string_viewIcS3_E(ptr noundef nonnull align 8 dereferenceable(1104) %0, ptr noundef nonnull align 8 dereferenceable(32) %1, i64 %2, ptr %3) local_unnamed_addr #3 align 2 {
  %5 = getelementptr inbounds i8, ptr %0, i64 368
  %6 = load ptr, ptr %5, align 8
  %7 = tail call ptr @_ZNK10cmMakefile13GetDefinitionERKNSt7__cxx1112basic_stringIcSt11char_traitsIcESaIcEEE(ptr noundef nonnull align 8 dereferenceable(3520) %6, ptr noundef nonnull align 8 dereferenceable(32) %1)
  %.not = icmp eq ptr %7, null
  %8 = getelementptr inbounds i8, ptr %0, i64 384
  %9 = tail call noundef nonnull align 8 dereferenceable(40) ptr @_ZNSt3mapINSt7__cxx1112basic_stringIcSt11char_traitsIcESaIcEEEN20cmFindPackageCommand11OriginalDefESt4lessIS5_ESaISt4pairIKS5_S7_EEEixERSB_(ptr noundef nonnull align 8 dereferenceable(48) %8, ptr noundef nonnull align 8 dereferenceable(32) %1)
  br i1 %.not, label %14, label %10

10:                                               ; preds = %4
  store i8 1, ptr %9, align 8
  %11 = tail call noundef nonnull align 8 dereferenceable(40) ptr @_ZNSt3mapINSt7__cxx1112basic_stringIcSt11char_traitsIcESaIcEEEN20cmFindPackageCommand11OriginalDefESt4lessIS5_ESaISt4pairIKS5_S7_EEEixERSB_(ptr noundef nonnull align 8 dereferenceable(48) %8, ptr noundef nonnull align 8 dereferenceable(32) %1)
  %12 = getelementptr inbounds i8, ptr %11, i64 8
  %13 = tail call noundef nonnull align 8 dereferenceable(32) ptr @_ZNSt7__cxx1112basic_stringIcSt11char_traitsIcESaIcEEaSERKS4_(ptr noundef nonnull align 8 dereferenceable(32) %12, ptr noundef nonnull align 8 dereferenceable(32) %7)
  br label %15

14:                                               ; preds = %4
  store i8 0, ptr %9, align 8
  br label %15

15:                                               ; preds = %14, %10
  %16 = load ptr, ptr %5, align 8
  tail call void @_ZN10cmMakefile13AddDefinitionERKNSt7__cxx1112basic_stringIcSt11char_traitsIcESaIcEEESt17basic_string_viewIcS3_E(ptr noundef nonnull align 8 dereferenceable(3520) %16, ptr noundef nonnull align 8 dereferenceable(32) %1, i64 %2, ptr %3)
  ret void
}